; Function Attrs: mustprogress uwtable
define void @_ZN8facebook5velox5cache7SsdFile4readEmRKSt6vectorIN5folly5RangeIPcEESaIS7_EE(ptr nocapture noundef nonnull readonly align 8 dereferenceable(381) %this, i64 noundef %offset, ptr noundef nonnull align 1 %buffers) local_unnamed_addr #4 align 2 {
entry:
  %readFile_ = getelementptr inbounds i8, ptr %this, i64 256
  %0 = load ptr, ptr %readFile_, align 8
  %vtable = load ptr, ptr %0, align 8
  %vfn = getelementptr inbounds i8, ptr %vtable, i64 32
  %1 = load ptr, ptr %vfn, align 8
  %call2 = tail call noundef i64 %1(ptr noundef nonnull align 8 dereferenceable(16) %0, i64 noundef %offset, ptr noundef nonnull align 1 %buffers)
  ret void
}